target datalayout = "e-m:e-p270:32:32-p271:32:32-p272:64:64-i64:64-i128:128-f80:128-n8:16:32:64-S128"
target triple = "x86_64-pc-linux-gnu"

%"class.std::ios_base::Init" = type { i8 }
%class.params_ref = type { ptr }

$_ZN10params_refC2Ev = comdat any

@_ZStL8__ioinit = internal global %"class.std::ios_base::Init" zeroinitializer, align 1
@__dso_handle = external hidden global i8
@.str = private unnamed_addr constant [5 x i8] c"seed\00", align 1
@.str.1 = private unnamed_addr constant [7 x i8] c"factor\00", align 1
@llvm.global_ctors = appending global [1 x { i32, ptr, ptr }] [{ i32, ptr, ptr } { i32 65535, ptr @_GLOBAL__sub_I_nra_tactic.cpp, ptr null }]

; Function Attrs: uwtable
define internal void @__cxx_global_var_init() #0 section ".text.startup" {
  call void @_ZNSt8ios_base4InitC1Ev(ptr noundef nonnull align 1 dereferenceable(1) @_ZStL8__ioinit)
  %1 = call i32 @__cxa_atexit(ptr @_ZNSt8ios_base4InitD1Ev, ptr @_ZStL8__ioinit, ptr @__dso_handle) #3
  ret void
}

declare void @_ZNSt8ios_base4InitC1Ev(ptr noundef nonnull align 1 dereferenceable(1)) unnamed_addr #1

; Function Attrs: nounwind
declare void @_ZNSt8ios_base4InitD1Ev(ptr noundef nonnull align 1 dereferenceable(1)) unnamed_addr #2

; Function Attrs: nounwind
declare i32 @__cxa_atexit(ptr, ptr, ptr) #3

; Function Attrs: mustprogress uwtable
define hidden noundef ptr @_Z13mk_nra_tacticR11ast_managerRK10params_ref(ptr noundef nonnull align 8 dereferenceable(976) %0, ptr noundef nonnull align 8 dereferenceable(8) %1) #4 personality ptr @__gxx_personality_v0 {
  %3 = alloca ptr, align 8
  %4 = alloca ptr, align 8
  %5 = alloca %class.params_ref, align 8
  %6 = alloca ptr, align 8
  %7 = alloca i32, align 4
  %8 = alloca %class.params_ref, align 8
  %9 = alloca %class.params_ref, align 8
  store ptr %0, ptr %3, align 8, !tbaa !3
  store ptr %1, ptr %4, align 8, !tbaa !8
  call void @llvm.lifetime.start.p0(i64 8, ptr %5) #3
  %10 = load ptr, ptr %4, align 8, !tbaa !8
  call void @_ZN10params_refC1ERKS_(ptr noundef nonnull align 8 dereferenceable(8) %5, ptr noundef nonnull align 8 dereferenceable(8) %10)
  invoke void @_ZN10params_ref8set_uintEPKcj(ptr noundef nonnull align 8 dereferenceable(8) %5, ptr noundef @.str, i32 noundef 11)
          to label %11 unwind label %64

11:                                               ; preds = %2
  invoke void @_ZN10params_ref8set_boolEPKcb(ptr noundef nonnull align 8 dereferenceable(8) %5, ptr noundef @.str.1, i1 noundef zeroext false)
          to label %12 unwind label %64

12:                                               ; preds = %11
  call void @llvm.lifetime.start.p0(i64 8, ptr %8) #3
  %13 = load ptr, ptr %4, align 8, !tbaa !8
  invoke void @_ZN10params_refC1ERKS_(ptr noundef nonnull align 8 dereferenceable(8) %8, ptr noundef nonnull align 8 dereferenceable(8) %13)
          to label %14 unwind label %68

14:                                               ; preds = %12
  invoke void @_ZN10params_ref8set_uintEPKcj(ptr noundef nonnull align 8 dereferenceable(8) %8, ptr noundef @.str, i32 noundef 13)
          to label %15 unwind label %72

15:                                               ; preds = %14
  invoke void @_ZN10params_ref8set_boolEPKcb(ptr noundef nonnull align 8 dereferenceable(8) %8, ptr noundef @.str.1, i1 noundef zeroext false)
          to label %16 unwind label %72

16:                                               ; preds = %15
  %17 = load ptr, ptr %3, align 8, !tbaa !3
  %18 = load ptr, ptr %4, align 8, !tbaa !8
  %19 = invoke noundef ptr @_Z18mk_simplify_tacticR11ast_managerRK10params_ref(ptr noundef nonnull align 8 dereferenceable(976) %17, ptr noundef nonnull align 8 dereferenceable(8) %18)
          to label %20 unwind label %72

20:                                               ; preds = %16
  %21 = load ptr, ptr %3, align 8, !tbaa !3
  %22 = load ptr, ptr %4, align 8, !tbaa !8
  %23 = invoke noundef ptr @_Z26mk_propagate_values_tacticR11ast_managerRK10params_ref(ptr noundef nonnull align 8 dereferenceable(976) %21, ptr noundef nonnull align 8 dereferenceable(8) %22)
          to label %24 unwind label %72

24:                                               ; preds = %20
  %25 = load ptr, ptr %3, align 8, !tbaa !3
  call void @llvm.lifetime.start.p0(i64 8, ptr %9) #3
  call void @llvm.memset.p0.i64(ptr align 8 %9, i8 0, i64 8, i1 false)
  call void @_ZN10params_refC2Ev(ptr noundef nonnull align 8 dereferenceable(8) %9) #3
  %26 = invoke noundef ptr @_Z17mk_qe_lite_tacticR11ast_managerRK10params_ref(ptr noundef nonnull align 8 dereferenceable(976) %25, ptr noundef nonnull align 8 dereferenceable(8) %9)
          to label %27 unwind label %76

27:                                               ; preds = %24
  %28 = load ptr, ptr %3, align 8, !tbaa !3
  %29 = load ptr, ptr %4, align 8, !tbaa !8
  %30 = invoke noundef ptr @_Z18mk_simplify_tacticR11ast_managerRK10params_ref(ptr noundef nonnull align 8 dereferenceable(976) %28, ptr noundef nonnull align 8 dereferenceable(8) %29)
          to label %31 unwind label %76

31:                                               ; preds = %27
  %32 = invoke noundef ptr @_Z17mk_is_qfnra_probev()
          to label %33 unwind label %76

33:                                               ; preds = %31
  %34 = load ptr, ptr %3, align 8, !tbaa !3
  %35 = load ptr, ptr %4, align 8, !tbaa !8
  %36 = invoke noundef ptr @_Z21mk_qfnra_nlsat_tacticR11ast_managerRK10params_ref(ptr noundef nonnull align 8 dereferenceable(976) %34, ptr noundef nonnull align 8 dereferenceable(8) %35)
          to label %37 unwind label %76

37:                                               ; preds = %33
  %38 = invoke noundef ptr @_Z7try_forP6tacticj(ptr noundef %36, i32 noundef 5000)
          to label %39 unwind label %76

39:                                               ; preds = %37
  %40 = load ptr, ptr %3, align 8, !tbaa !3
  %41 = invoke noundef ptr @_Z21mk_qfnra_nlsat_tacticR11ast_managerRK10params_ref(ptr noundef nonnull align 8 dereferenceable(976) %40, ptr noundef nonnull align 8 dereferenceable(8) %5)
          to label %42 unwind label %76

42:                                               ; preds = %39
  %43 = invoke noundef ptr @_Z7try_forP6tacticj(ptr noundef %41, i32 noundef 10000)
          to label %44 unwind label %76

44:                                               ; preds = %42
  %45 = load ptr, ptr %3, align 8, !tbaa !3
  %46 = invoke noundef ptr @_Z21mk_qfnra_nlsat_tacticR11ast_managerRK10params_ref(ptr noundef nonnull align 8 dereferenceable(976) %45, ptr noundef nonnull align 8 dereferenceable(8) %8)
          to label %47 unwind label %76

47:                                               ; preds = %44
  %48 = invoke noundef ptr @_Z7or_elseP6tacticS0_S0_(ptr noundef %38, ptr noundef %43, ptr noundef %46)
          to label %49 unwind label %76

49:                                               ; preds = %47
  %50 = load ptr, ptr %3, align 8, !tbaa !3
  %51 = load ptr, ptr %4, align 8, !tbaa !8
  %52 = invoke noundef ptr @_Z16mk_nlqsat_tacticR11ast_managerRK10params_ref(ptr noundef nonnull align 8 dereferenceable(976) %50, ptr noundef nonnull align 8 dereferenceable(8) %51)
          to label %53 unwind label %76

53:                                               ; preds = %49
  %54 = load ptr, ptr %3, align 8, !tbaa !3
  %55 = load ptr, ptr %4, align 8, !tbaa !8
  %56 = invoke noundef ptr @_Z13mk_smt_tacticR11ast_managerRK10params_ref(ptr noundef nonnull align 8 dereferenceable(976) %54, ptr noundef nonnull align 8 dereferenceable(8) %55)
          to label %57 unwind label %76

57:                                               ; preds = %53
  %58 = invoke noundef ptr @_Z7or_elseP6tacticS0_(ptr noundef %52, ptr noundef %56)
          to label %59 unwind label %76

59:                                               ; preds = %57
  %60 = invoke noundef ptr @_Z4condP5probeP6tacticS2_(ptr noundef %32, ptr noundef %48, ptr noundef %58)
          to label %61 unwind label %76

61:                                               ; preds = %59
  %62 = invoke noundef ptr @_Z8and_thenP6tacticS0_S0_S0_S0_(ptr noundef %19, ptr noundef %23, ptr noundef %26, ptr noundef %30, ptr noundef %60)
          to label %63 unwind label %76

63:                                               ; preds = %61
  call void @_ZN10params_refD1Ev(ptr noundef nonnull align 8 dereferenceable(8) %9) #3
  call void @llvm.lifetime.end.p0(i64 8, ptr %9) #3
  call void @_ZN10params_refD1Ev(ptr noundef nonnull align 8 dereferenceable(8) %8) #3
  call void @llvm.lifetime.end.p0(i64 8, ptr %8) #3
  call void @_ZN10params_refD1Ev(ptr noundef nonnull align 8 dereferenceable(8) %5) #3
  call void @llvm.lifetime.end.p0(i64 8, ptr %5) #3
  ret ptr %62

64:                                               ; preds = %11, %2
  %65 = landingpad { ptr, i32 }
          cleanup
  %66 = extractvalue { ptr, i32 } %65, 0
  store ptr %66, ptr %6, align 8
  %67 = extractvalue { ptr, i32 } %65, 1
  store i32 %67, ptr %7, align 4
  br label %82

68:                                               ; preds = %12
  %69 = landingpad { ptr, i32 }
          cleanup
  %70 = extractvalue { ptr, i32 } %69, 0
  store ptr %70, ptr %6, align 8
  %71 = extractvalue { ptr, i32 } %69, 1
  store i32 %71, ptr %7, align 4
  br label %81

72:                                               ; preds = %20, %16, %15, %14
  %73 = landingpad { ptr, i32 }
          cleanup
  %74 = extractvalue { ptr, i32 } %73, 0
  store ptr %74, ptr %6, align 8
  %75 = extractvalue { ptr, i32 } %73, 1
  store i32 %75, ptr %7, align 4
  br label %80

76:                                               ; preds = %61, %59, %57, %53, %49, %47, %44, %42, %39, %37, %33, %31, %27, %24
  %77 = landingpad { ptr, i32 }
          cleanup
  %78 = extractvalue { ptr, i32 } %77, 0
  store ptr %78, ptr %6, align 8
  %79 = extractvalue { ptr, i32 } %77, 1
  store i32 %79, ptr %7, align 4
  call void @_ZN10params_refD1Ev(ptr noundef nonnull align 8 dereferenceable(8) %9) #3
  call void @llvm.lifetime.end.p0(i64 8, ptr %9) #3
  br label %80

80:                                               ; preds = %76, %72
  call void @_ZN10params_refD1Ev(ptr noundef nonnull align 8 dereferenceable(8) %8) #3
  br label %81

81:                                               ; preds = %80, %68
  call void @llvm.lifetime.end.p0(i64 8, ptr %8) #3
  br label %82

82:                                               ; preds = %81, %64
  call void @_ZN10params_refD1Ev(ptr noundef nonnull align 8 dereferenceable(8) %5) #3
  call void @llvm.lifetime.end.p0(i64 8, ptr %5) #3
  br label %83

83:                                               ; preds = %82
  %84 = load ptr, ptr %6, align 8
  %85 = load i32, ptr %7, align 4
  %86 = insertvalue { ptr, i32 } poison, ptr %84, 0
  %87 = insertvalue { ptr, i32 } %86, i32 %85, 1
  resume { ptr, i32 } %87
}

; Function Attrs: nocallback nofree nosync nounwind willreturn memory(argmem: readwrite)
declare void @llvm.lifetime.start.p0(i64 immarg, ptr captures(none)) #5

declare void @_ZN10params_refC1ERKS_(ptr noundef nonnull align 8 dereferenceable(8), ptr noundef nonnull align 8 dereferenceable(8)) unnamed_addr #1

declare void @_ZN10params_ref8set_uintEPKcj(ptr noundef nonnull align 8 dereferenceable(8), ptr noundef, i32 noundef) #1

declare i32 @__gxx_personality_v0(...)

declare void @_ZN10params_ref8set_boolEPKcb(ptr noundef nonnull align 8 dereferenceable(8), ptr noundef, i1 noundef zeroext) #1

declare noundef ptr @_Z8and_thenP6tacticS0_S0_S0_S0_(ptr noundef, ptr noundef, ptr noundef, ptr noundef, ptr noundef) #1

declare noundef ptr @_Z18mk_simplify_tacticR11ast_managerRK10params_ref(ptr noundef nonnull align 8 dereferenceable(976), ptr noundef nonnull align 8 dereferenceable(8)) #1

declare noundef ptr @_Z26mk_propagate_values_tacticR11ast_managerRK10params_ref(ptr noundef nonnull align 8 dereferenceable(976), ptr noundef nonnull align 8 dereferenceable(8)) #1

declare noundef ptr @_Z17mk_qe_lite_tacticR11ast_managerRK10params_ref(ptr noundef nonnull align 8 dereferenceable(976), ptr noundef nonnull align 8 dereferenceable(8)) #1

; Function Attrs: nocallback nofree nounwind willreturn memory(argmem: write)
declare void @llvm.memset.p0.i64(ptr writeonly captures(none), i8, i64, i1 immarg) #6

; Function Attrs: mustprogress nounwind uwtable
define linkonce_odr hidden void @_ZN10params_refC2Ev(ptr noundef nonnull align 8 dereferenceable(8) %0) unnamed_addr #7 comdat align 2 {
  %2 = alloca ptr, align 8
  store ptr %0, ptr %2, align 8, !tbaa !8
  %3 = load ptr, ptr %2, align 8
  %4 = getelementptr inbounds nuw %class.params_ref, ptr %3, i32 0, i32 0
  store ptr null, ptr %4, align 8, !tbaa !10
  ret void
}

declare noundef ptr @_Z4condP5probeP6tacticS2_(ptr noundef, ptr noundef, ptr noundef) #1

declare noundef ptr @_Z17mk_is_qfnra_probev() #1

declare noundef ptr @_Z7or_elseP6tacticS0_S0_(ptr noundef, ptr noundef, ptr noundef) #1

declare noundef ptr @_Z7try_forP6tacticj(ptr noundef, i32 noundef) #1

declare noundef ptr @_Z21mk_qfnra_nlsat_tacticR11ast_managerRK10params_ref(ptr noundef nonnull align 8 dereferenceable(976), ptr noundef nonnull align 8 dereferenceable(8)) #1

declare noundef ptr @_Z7or_elseP6tacticS0_(ptr noundef, ptr noundef) #1

declare noundef ptr @_Z16mk_nlqsat_tacticR11ast_managerRK10params_ref(ptr noundef nonnull align 8 dereferenceable(976), ptr noundef nonnull align 8 dereferenceable(8)) #1

declare noundef ptr @_Z13mk_smt_tacticR11ast_managerRK10params_ref(ptr noundef nonnull align 8 dereferenceable(976), ptr noundef nonnull align 8 dereferenceable(8)) #1

; Function Attrs: nounwind
declare void @_ZN10params_refD1Ev(ptr noundef nonnull align 8 dereferenceable(8)) unnamed_addr #2

; Function Attrs: nocallback nofree nosync nounwind willreturn memory(argmem: readwrite)
declare void @llvm.lifetime.end.p0(i64 immarg, ptr captures(none)) #5

; Function Attrs: uwtable
define internal void @_GLOBAL__sub_I_nra_tactic.cpp() #0 section ".text.startup" {
  call void @__cxx_global_var_init()
  ret void
}


!llvm.linker.options = !{}
!llvm.module.flags = !{!0, !1, !2}

!0 = !{i32 1, !"wchar_size", i32 4}
!1 = !{i32 8, !"PIC Level", i32 2}
!2 = !{i32 7, !"uwtable", i32 2}
!3 = !{!4, !4, i64 0}
!4 = !{!"p1 _ZTS11ast_manager", !5, i64 0}
!5 = !{!"any pointer", !6, i64 0}
!6 = !{!"omnipotent char", !7, i64 0}
!7 = !{!"Simple C++ TBAA"}
!8 = !{!9, !9, i64 0}
!9 = !{!"p1 _ZTS10params_ref", !5, i64 0}
!10 = !{!11, !12, i64 0}
!11 = !{!"_ZTS10params_ref", !12, i64 0}
!12 = !{!"p1 _ZTS6params", !5, i64 0}
